
uart_project1.elf:     file format elf32-avr

Sections:
Idx Name          Size      VMA       LMA       File off  Algn
  0 .data         00000000  00800100  00800100  00000176  2**0
                  CONTENTS, ALLOC, LOAD, DATA
  1 .text         00000122  00000000  00000000  00000054  2**1
                  CONTENTS, ALLOC, LOAD, READONLY, CODE
  2 .comment      00000030  00000000  00000000  00000176  2**0
                  CONTENTS, READONLY
  3 .note.gnu.avr.deviceinfo 0000003c  00000000  00000000  000001a8  2**2
                  CONTENTS, READONLY
  4 .debug_aranges 00000030  00000000  00000000  000001e4  2**0
                  CONTENTS, READONLY, DEBUGGING
  5 .debug_info   0000087a  00000000  00000000  00000214  2**0
                  CONTENTS, READONLY, DEBUGGING
  6 .debug_abbrev 000007cb  00000000  00000000  00000a8e  2**0
                  CONTENTS, READONLY, DEBUGGING
  7 .debug_line   0000026b  00000000  00000000  00001259  2**0
                  CONTENTS, READONLY, DEBUGGING
  8 .debug_frame  0000008c  00000000  00000000  000014c4  2**2
                  CONTENTS, READONLY, DEBUGGING
  9 .debug_str    000003ef  00000000  00000000  00001550  2**0
                  CONTENTS, READONLY, DEBUGGING
 10 .debug_loc    000000de  00000000  00000000  0000193f  2**0
                  CONTENTS, READONLY, DEBUGGING
 11 .debug_ranges 00000020  00000000  00000000  00001a1d  2**0
                  CONTENTS, READONLY, DEBUGGING

Disassembly of section .text:

00000000 <__vectors>:
   0:	45 c0       	rjmp	.+138    	; 0x8c <__ctors_end>
   2:	00 00       	nop
   4:	4b c0       	rjmp	.+150    	; 0x9c <__bad_interrupt>
   6:	00 00       	nop
   8:	49 c0       	rjmp	.+146    	; 0x9c <__bad_interrupt>
   a:	00 00       	nop
   c:	47 c0       	rjmp	.+142    	; 0x9c <__bad_interrupt>
   e:	00 00       	nop
  10:	45 c0       	rjmp	.+138    	; 0x9c <__bad_interrupt>
  12:	00 00       	nop
  14:	43 c0       	rjmp	.+134    	; 0x9c <__bad_interrupt>
  16:	00 00       	nop
  18:	41 c0       	rjmp	.+130    	; 0x9c <__bad_interrupt>
  1a:	00 00       	nop
  1c:	3f c0       	rjmp	.+126    	; 0x9c <__bad_interrupt>
  1e:	00 00       	nop
  20:	3d c0       	rjmp	.+122    	; 0x9c <__bad_interrupt>
  22:	00 00       	nop
  24:	3b c0       	rjmp	.+118    	; 0x9c <__bad_interrupt>
  26:	00 00       	nop
  28:	39 c0       	rjmp	.+114    	; 0x9c <__bad_interrupt>
  2a:	00 00       	nop
  2c:	37 c0       	rjmp	.+110    	; 0x9c <__bad_interrupt>
  2e:	00 00       	nop
  30:	35 c0       	rjmp	.+106    	; 0x9c <__bad_interrupt>
  32:	00 00       	nop
  34:	33 c0       	rjmp	.+102    	; 0x9c <__bad_interrupt>
  36:	00 00       	nop
  38:	31 c0       	rjmp	.+98     	; 0x9c <__bad_interrupt>
  3a:	00 00       	nop
  3c:	2f c0       	rjmp	.+94     	; 0x9c <__bad_interrupt>
  3e:	00 00       	nop
  40:	2d c0       	rjmp	.+90     	; 0x9c <__bad_interrupt>
  42:	00 00       	nop
  44:	2b c0       	rjmp	.+86     	; 0x9c <__bad_interrupt>
  46:	00 00       	nop
  48:	29 c0       	rjmp	.+82     	; 0x9c <__bad_interrupt>
  4a:	00 00       	nop
  4c:	27 c0       	rjmp	.+78     	; 0x9c <__bad_interrupt>
  4e:	00 00       	nop
  50:	25 c0       	rjmp	.+74     	; 0x9c <__bad_interrupt>
  52:	00 00       	nop
  54:	23 c0       	rjmp	.+70     	; 0x9c <__bad_interrupt>
  56:	00 00       	nop
  58:	21 c0       	rjmp	.+66     	; 0x9c <__bad_interrupt>
  5a:	00 00       	nop
  5c:	1f c0       	rjmp	.+62     	; 0x9c <__bad_interrupt>
  5e:	00 00       	nop
  60:	1d c0       	rjmp	.+58     	; 0x9c <__bad_interrupt>
  62:	00 00       	nop
  64:	1b c0       	rjmp	.+54     	; 0x9c <__bad_interrupt>
  66:	00 00       	nop
  68:	19 c0       	rjmp	.+50     	; 0x9c <__bad_interrupt>
  6a:	00 00       	nop
  6c:	17 c0       	rjmp	.+46     	; 0x9c <__bad_interrupt>
  6e:	00 00       	nop
  70:	15 c0       	rjmp	.+42     	; 0x9c <__bad_interrupt>
  72:	00 00       	nop
  74:	13 c0       	rjmp	.+38     	; 0x9c <__bad_interrupt>
  76:	00 00       	nop
  78:	28 c0       	rjmp	.+80     	; 0xca <__vector_30>
  7a:	00 00       	nop
  7c:	0f c0       	rjmp	.+30     	; 0x9c <__bad_interrupt>
  7e:	00 00       	nop
  80:	0d c0       	rjmp	.+26     	; 0x9c <__bad_interrupt>
  82:	00 00       	nop
  84:	0b c0       	rjmp	.+22     	; 0x9c <__bad_interrupt>
  86:	00 00       	nop
  88:	09 c0       	rjmp	.+18     	; 0x9c <__bad_interrupt>
	...

0000008c <__ctors_end>:
  8c:	11 24       	eor	r1, r1
  8e:	1f be       	out	0x3f, r1	; 63
  90:	cf ef       	ldi	r28, 0xFF	; 255
  92:	d0 e1       	ldi	r29, 0x10	; 16
  94:	de bf       	out	0x3e, r29	; 62
  96:	cd bf       	out	0x3d, r28	; 61
  98:	09 d0       	rcall	.+18     	; 0xac <main>
  9a:	41 c0       	rjmp	.+130    	; 0x11e <_exit>

0000009c <__bad_interrupt>:
  9c:	b1 cf       	rjmp	.-158    	; 0x0 <__vectors>

0000009e <uart_char_tx>:
#include <avr/interrupt.h>
void uart_char_tx(unsigned chr){
	//check var xem bit udre1 co bang 1 khong 
	//1 nghia la dang trong co the truyen du lieu
	//UCSR1A = dung uart o cong PD
	while(bit_is_clear(UCSR1A,UDRE1)){};
  9e:	90 91 9b 00 	lds	r25, 0x009B	; 0x80009b <__TEXT_REGION_LENGTH__+0x7e009b>
  a2:	95 ff       	sbrs	r25, 5
  a4:	fc cf       	rjmp	.-8      	; 0x9e <uart_char_tx>
	UDR1 = chr;
  a6:	80 93 9c 00 	sts	0x009C, r24	; 0x80009c <__TEXT_REGION_LENGTH__+0x7e009c>
  aa:	08 95       	ret

000000ac <main>:
int main(void)
{
	
    /* Replace with your application code */
	//cau hinh uart1
	UBRR1H = 0;
  ac:	10 92 98 00 	sts	0x0098, r1	; 0x800098 <__TEXT_REGION_LENGTH__+0x7e0098>
	UBRR1L = 51;
  b0:	83 e3       	ldi	r24, 0x33	; 51
  b2:	80 93 99 00 	sts	0x0099, r24	; 0x800099 <__TEXT_REGION_LENGTH__+0x7e0099>
	
	UCSR1A = 0x00;
  b6:	10 92 9b 00 	sts	0x009B, r1	; 0x80009b <__TEXT_REGION_LENGTH__+0x7e009b>
	
	//cho phep nhan du lieu, truyen du lieu va ngat khi nhan xong 
	UCSR1B = (1<<RXEN1)|(1<<TXEN1)|(1<<RXCIE1);
  ba:	88 e9       	ldi	r24, 0x98	; 152
  bc:	80 93 9a 00 	sts	0x009A, r24	; 0x80009a <__TEXT_REGION_LENGTH__+0x7e009a>
	
	// set truyen 8 bit
	UCSR1C = (1<<UCSZ11)|(1<<UCSZ10);
  c0:	86 e0       	ldi	r24, 0x06	; 6
  c2:	80 93 9d 00 	sts	0x009D, r24	; 0x80009d <__TEXT_REGION_LENGTH__+0x7e009d>
	sei(); // cho phep ngat toan cuc
  c6:	78 94       	sei
  c8:	ff cf       	rjmp	.-2      	; 0xc8 <main+0x1c>

000000ca <__vector_30>:
    {
    }
}

// Interrupt Service Routine for UART1 receive
ISR(USART1_RX_vect) {
  ca:	1f 92       	push	r1
  cc:	0f 92       	push	r0
  ce:	0f b6       	in	r0, 0x3f	; 63
  d0:	0f 92       	push	r0
  d2:	11 24       	eor	r1, r1
  d4:	0b b6       	in	r0, 0x3b	; 59
  d6:	0f 92       	push	r0
  d8:	2f 93       	push	r18
  da:	3f 93       	push	r19
  dc:	4f 93       	push	r20
  de:	5f 93       	push	r21
  e0:	6f 93       	push	r22
  e2:	7f 93       	push	r23
  e4:	8f 93       	push	r24
  e6:	9f 93       	push	r25
  e8:	af 93       	push	r26
  ea:	bf 93       	push	r27
  ec:	ef 93       	push	r30
  ee:	ff 93       	push	r31
	char u_data = UDR1; // Read received data
  f0:	80 91 9c 00 	lds	r24, 0x009C	; 0x80009c <__TEXT_REGION_LENGTH__+0x7e009c>
	uart_char_tx(u_data); // Echo back the received character
  f4:	90 e0       	ldi	r25, 0x00	; 0
  f6:	d3 df       	rcall	.-90     	; 0x9e <uart_char_tx>
}
  f8:	ff 91       	pop	r31
  fa:	ef 91       	pop	r30
  fc:	bf 91       	pop	r27
  fe:	af 91       	pop	r26
 100:	9f 91       	pop	r25
 102:	8f 91       	pop	r24
 104:	7f 91       	pop	r23
 106:	6f 91       	pop	r22
 108:	5f 91       	pop	r21
 10a:	4f 91       	pop	r20
 10c:	3f 91       	pop	r19
 10e:	2f 91       	pop	r18
 110:	0f 90       	pop	r0
 112:	0b be       	out	0x3b, r0	; 59
 114:	0f 90       	pop	r0
 116:	0f be       	out	0x3f, r0	; 63
 118:	0f 90       	pop	r0
 11a:	1f 90       	pop	r1
 11c:	18 95       	reti

0000011e <_exit>:
 11e:	f8 94       	cli

00000120 <__stop_program>:
 120:	ff cf       	rjmp	.-2      	; 0x120 <__stop_program>
